target datalayout = "e-m:e-p270:32:32-p271:32:32-p272:64:64-i64:64-i128:128-f80:128-n8:16:32:64-S128"
target triple = "x86_64-pc-linux-gnu"

%"class.icu_77::StringSearch" = type { %"class.icu_77::SearchIterator", %"class.icu_77::UnicodeString", ptr }
%"class.icu_77::SearchIterator" = type { %"class.icu_77::UObject", ptr, ptr, %"class.icu_77::UnicodeString" }
%"class.icu_77::UObject" = type { ptr }
%"class.icu_77::UnicodeString" = type { %"class.icu_77::Replaceable", %"union.icu_77::UnicodeString::StackBufferOrFields" }
%"class.icu_77::Replaceable" = type { %"class.icu_77::UObject" }
%"union.icu_77::UnicodeString::StackBufferOrFields" = type { %struct.anon.0, [32 x i8] }
%struct.anon.0 = type { i16, i32, i32, ptr }
%struct.UStringSearch = type { ptr, %struct.UPattern, ptr, ptr, ptr, ptr, ptr, i8, i32, i32, i32, i8 }
%struct.UPattern = type { ptr, i32, i32, ptr, [256 x i32], i32, ptr, [256 x i64], i8, i8 }
%struct.USearch = type { ptr, i32, i8, i8, i16, ptr, ptr, i32, i32, i8, i8 }

; Function Attrs: inlinehint mustprogress nounwind uwtable
define internal noundef signext i8 @_ZL9U_FAILURE10UErrorCode(i32 noundef %0) #3 {
  %2 = alloca i32, align 4
  store i32 %0, ptr %2, align 4, !tbaa !17
  %3 = load i32, ptr %2, align 4, !tbaa !17
  %4 = icmp sgt i32 %3, 0
  %5 = zext i1 %4 to i8
  ret i8 %5
}

; Function Attrs: mustprogress uwtable
define noundef i32 @_ZNK6icu_7712StringSearch9getOffsetEv(ptr noundef nonnull align 8 dereferenceable(160) %0) unnamed_addr #1 align 2 {
  %2 = alloca ptr, align 8
  store ptr %0, ptr %2, align 8, !tbaa !3
  %3 = load ptr, ptr %2, align 8
  %4 = getelementptr inbounds nuw %"class.icu_77::StringSearch", ptr %3, i32 0, i32 2
  %5 = load ptr, ptr %4, align 8, !tbaa !19
  %6 = call i32 @usearch_getOffset_77(ptr noundef %5)
  ret i32 %6
}

; Function Attrs: inlinehint mustprogress nounwind uwtable
define internal noundef signext i8 @_ZL9U_SUCCESS10UErrorCode(i32 noundef %0) #3 {
  %2 = alloca i32, align 4
  store i32 %0, ptr %2, align 4, !tbaa !17
  %3 = load i32, ptr %2, align 4, !tbaa !17
  %4 = icmp sle i32 %3, 0
  %5 = zext i1 %4 to i8
  ret i8 %5
}

; Function Attrs: mustprogress uwtable
define noundef i32 @_ZN6icu_7712StringSearch10handlePrevEiR10UErrorCode(ptr noundef nonnull align 8 dereferenceable(160) %0, i32 noundef %1, ptr noundef nonnull align 4 dereferenceable(4) %2) unnamed_addr #1 align 2 {
  %4 = alloca i32, align 4
  %5 = alloca ptr, align 8
  %6 = alloca i32, align 4
  %7 = alloca ptr, align 8
  store ptr %0, ptr %5, align 8, !tbaa !3
  store i32 %1, ptr %6, align 4, !tbaa !54
  store ptr %2, ptr %7, align 8, !tbaa !14
  %8 = load ptr, ptr %5, align 8
  %9 = load ptr, ptr %7, align 8, !tbaa !14
  %10 = load i32, ptr %9, align 4, !tbaa !17
  %11 = call noundef signext i8 @_ZL9U_SUCCESS10UErrorCode(i32 noundef %10)
  %12 = icmp ne i8 %11, 0
  br i1 %12, label %13, label %101

13:                                               ; preds = %3
  %14 = getelementptr inbounds nuw %"class.icu_77::StringSearch", ptr %8, i32 0, i32 2
  %15 = load ptr, ptr %14, align 8, !tbaa !19
  %16 = getelementptr inbounds nuw %struct.UStringSearch, ptr %15, i32 0, i32 1
  %17 = getelementptr inbounds nuw %struct.UPattern, ptr %16, i32 0, i32 2
  %18 = load i32, ptr %17, align 4, !tbaa !61
  %19 = icmp eq i32 %18, 0
  br i1 %19, label %20, label %63

20:                                               ; preds = %13
  %21 = getelementptr inbounds nuw %"class.icu_77::SearchIterator", ptr %8, i32 0, i32 1
  %22 = load ptr, ptr %21, align 8, !tbaa !27
  %23 = getelementptr inbounds nuw %struct.USearch, ptr %22, i32 0, i32 7
  %24 = load i32, ptr %23, align 8, !tbaa !56
  %25 = icmp eq i32 %24, -1
  br i1 %25, label %26, label %28

26:                                               ; preds = %20
  %27 = call noundef i32 @_ZNK6icu_7712StringSearch9getOffsetEv(ptr noundef nonnull align 8 dereferenceable(160) %8)
  br label %33

28:                                               ; preds = %20
  %29 = getelementptr inbounds nuw %"class.icu_77::SearchIterator", ptr %8, i32 0, i32 1
  %30 = load ptr, ptr %29, align 8, !tbaa !27
  %31 = getelementptr inbounds nuw %struct.USearch, ptr %30, i32 0, i32 7
  %32 = load i32, ptr %31, align 8, !tbaa !56
  br label %33

33:                                               ; preds = %28, %26
  %34 = phi i32 [ %27, %26 ], [ %32, %28 ]
  %35 = getelementptr inbounds nuw %"class.icu_77::SearchIterator", ptr %8, i32 0, i32 1
  %36 = load ptr, ptr %35, align 8, !tbaa !27
  %37 = getelementptr inbounds nuw %struct.USearch, ptr %36, i32 0, i32 7
  store i32 %34, ptr %37, align 8, !tbaa !56
  %38 = getelementptr inbounds nuw %"class.icu_77::SearchIterator", ptr %8, i32 0, i32 1
  %39 = load ptr, ptr %38, align 8, !tbaa !27
  %40 = getelementptr inbounds nuw %struct.USearch, ptr %39, i32 0, i32 7
  %41 = load i32, ptr %40, align 8, !tbaa !56
  %42 = icmp eq i32 %41, 0
  br i1 %42, label %43, label %44

43:                                               ; preds = %33
  call void @_ZN6icu_7714SearchIterator16setMatchNotFoundEv(ptr noundef nonnull align 8 dereferenceable(88) %8)
  br label %62

44:                                               ; preds = %33
  %45 = getelementptr inbounds nuw %"class.icu_77::SearchIterator", ptr %8, i32 0, i32 1
  %46 = load ptr, ptr %45, align 8, !tbaa !27
  %47 = getelementptr inbounds nuw %struct.USearch, ptr %46, i32 0, i32 7
  %48 = load i32, ptr %47, align 8, !tbaa !56
  %49 = add nsw i32 %48, -1
  store i32 %49, ptr %47, align 8, !tbaa !56
  %50 = getelementptr inbounds nuw %"class.icu_77::StringSearch", ptr %8, i32 0, i32 2
  %51 = load ptr, ptr %50, align 8, !tbaa !19
  %52 = getelementptr inbounds nuw %struct.UStringSearch, ptr %51, i32 0, i32 4
  %53 = load ptr, ptr %52, align 8, !tbaa !62
  %54 = getelementptr inbounds nuw %"class.icu_77::SearchIterator", ptr %8, i32 0, i32 1
  %55 = load ptr, ptr %54, align 8, !tbaa !27
  %56 = getelementptr inbounds nuw %struct.USearch, ptr %55, i32 0, i32 7
  %57 = load i32, ptr %56, align 8, !tbaa !56
  %58 = load ptr, ptr %7, align 8, !tbaa !14
  call void @ucol_setOffset_77(ptr noundef %53, i32 noundef %57, ptr noundef %58)
  %59 = getelementptr inbounds nuw %"class.icu_77::SearchIterator", ptr %8, i32 0, i32 1
  %60 = load ptr, ptr %59, align 8, !tbaa !27
  %61 = getelementptr inbounds nuw %struct.USearch, ptr %60, i32 0, i32 8
  store i32 0, ptr %61, align 4, !tbaa !60
  br label %62

62:                                               ; preds = %44, %43
  br label %96

63:                                               ; preds = %13
  %64 = getelementptr inbounds nuw %"class.icu_77::StringSearch", ptr %8, i32 0, i32 2
  %65 = load ptr, ptr %64, align 8, !tbaa !19
  %66 = getelementptr inbounds nuw %struct.UStringSearch, ptr %65, i32 0, i32 4
  %67 = load ptr, ptr %66, align 8, !tbaa !62
  %68 = load i32, ptr %6, align 4, !tbaa !54
  %69 = load ptr, ptr %7, align 8, !tbaa !14
  call void @ucol_setOffset_77(ptr noundef %67, i32 noundef %68, ptr noundef %69)
  %70 = getelementptr inbounds nuw %"class.icu_77::SearchIterator", ptr %8, i32 0, i32 1
  %71 = load ptr, ptr %70, align 8, !tbaa !27
  %72 = getelementptr inbounds nuw %struct.USearch, ptr %71, i32 0, i32 3
  %73 = load i8, ptr %72, align 1, !tbaa !64
  %74 = icmp ne i8 %73, 0
  br i1 %74, label %75, label %80

75:                                               ; preds = %63
  %76 = getelementptr inbounds nuw %"class.icu_77::StringSearch", ptr %8, i32 0, i32 2
  %77 = load ptr, ptr %76, align 8, !tbaa !19
  %78 = load ptr, ptr %7, align 8, !tbaa !14
  %79 = call signext i8 @usearch_handlePreviousCanonical_77(ptr noundef %77, ptr noundef %78)
  br label %85

80:                                               ; preds = %63
  %81 = getelementptr inbounds nuw %"class.icu_77::StringSearch", ptr %8, i32 0, i32 2
  %82 = load ptr, ptr %81, align 8, !tbaa !19
  %83 = load ptr, ptr %7, align 8, !tbaa !14
  %84 = call signext i8 @usearch_handlePreviousExact_77(ptr noundef %82, ptr noundef %83)
  br label %85

85:                                               ; preds = %80, %75
  %86 = load ptr, ptr %7, align 8, !tbaa !14
  %87 = load i32, ptr %86, align 4, !tbaa !17
  %88 = call noundef signext i8 @_ZL9U_FAILURE10UErrorCode(i32 noundef %87)
  %89 = icmp ne i8 %88, 0
  br i1 %89, label %90, label %91

90:                                               ; preds = %85
  store i32 -1, ptr %4, align 4
  br label %102

91:                                               ; preds = %85
  %92 = getelementptr inbounds nuw %"class.icu_77::SearchIterator", ptr %8, i32 0, i32 1
  %93 = load ptr, ptr %92, align 8, !tbaa !27
  %94 = getelementptr inbounds nuw %struct.USearch, ptr %93, i32 0, i32 7
  %95 = load i32, ptr %94, align 8, !tbaa !56
  store i32 %95, ptr %4, align 4
  br label %102

96:                                               ; preds = %62
  %97 = getelementptr inbounds nuw %"class.icu_77::SearchIterator", ptr %8, i32 0, i32 1
  %98 = load ptr, ptr %97, align 8, !tbaa !27
  %99 = getelementptr inbounds nuw %struct.USearch, ptr %98, i32 0, i32 7
  %100 = load i32, ptr %99, align 8, !tbaa !56
  store i32 %100, ptr %4, align 4
  br label %102

101:                                              ; preds = %3
  store i32 -1, ptr %4, align 4
  br label %102

102:                                              ; preds = %101, %96, %91, %90
  %103 = load i32, ptr %4, align 4
  ret i32 %103
}