; Function Attrs: mustprogress uwtable
define noundef i32 @_ZN6icu_7712StringSearch10handlePrevEiR10UErrorCode(ptr noundef nonnull align 8 dereferenceable(160) %0, i32 noundef %1, ptr noundef nonnull align 4 dereferenceable(4) %2) unnamed_addr #1 align 2 {
  %4 = load i32, ptr %2, align 4, !tbaa !6
  %5 = icmp sgt i32 %4, 0
  br i1 %5, label %52, label %6

6:                                                ; preds = %3
  %7 = getelementptr inbounds nuw i8, ptr %0, i64 152
  %8 = load ptr, ptr %7, align 8, !tbaa !9
  %9 = getelementptr inbounds nuw i8, ptr %8, i64 20
  %10 = load i32, ptr %9, align 4, !tbaa !43
  %11 = icmp eq i32 %10, 0
  br i1 %11, label %12, label %33

12:                                               ; preds = %6
  %13 = getelementptr inbounds nuw i8, ptr %0, i64 8
  %14 = load ptr, ptr %13, align 8, !tbaa !24
  %15 = getelementptr inbounds nuw i8, ptr %14, i64 32
  %16 = load i32, ptr %15, align 8, !tbaa !38
  %17 = icmp eq i32 %16, -1
  br i1 %17, label %18, label %20

18:                                               ; preds = %12
  %19 = tail call noundef i32 @usearch_getOffset_77(ptr noundef nonnull %8)
  %.pre = load ptr, ptr %13, align 8, !tbaa !24
  br label %20

20:                                               ; preds = %12, %18
  %21 = phi ptr [ %.pre, %18 ], [ %14, %12 ]
  %22 = phi i32 [ %19, %18 ], [ %16, %12 ]
  %23 = getelementptr inbounds nuw i8, ptr %21, i64 32
  store i32 %22, ptr %23, align 8, !tbaa !38
  %24 = icmp eq i32 %22, 0
  br i1 %24, label %25, label %26

25:                                               ; preds = %20
  tail call void @_ZN6icu_7714SearchIterator16setMatchNotFoundEv(ptr noundef nonnull align 8 dereferenceable(88) %0)
  %.pre12 = load ptr, ptr %13, align 8, !tbaa !24
  br label %.sink.split

26:                                               ; preds = %20
  %27 = add nsw i32 %22, -1
  store i32 %27, ptr %23, align 8, !tbaa !38
  %28 = load ptr, ptr %7, align 8, !tbaa !9
  %29 = getelementptr inbounds nuw i8, ptr %28, i64 3144
  %30 = load ptr, ptr %29, align 8, !tbaa !44
  tail call void @ucol_setOffset_77(ptr noundef %30, i32 noundef %27, ptr noundef nonnull %2)
  %31 = load ptr, ptr %13, align 8, !tbaa !24
  %32 = getelementptr inbounds nuw i8, ptr %31, i64 36
  store i32 0, ptr %32, align 4, !tbaa !42
  br label %.sink.split

33:                                               ; preds = %6
  %34 = getelementptr inbounds nuw i8, ptr %8, i64 3144
  %35 = load ptr, ptr %34, align 8, !tbaa !44
  tail call void @ucol_setOffset_77(ptr noundef %35, i32 noundef %1, ptr noundef nonnull %2)
  %36 = getelementptr inbounds nuw i8, ptr %0, i64 8
  %37 = load ptr, ptr %36, align 8, !tbaa !24
  %38 = getelementptr inbounds nuw i8, ptr %37, i64 13
  %39 = load i8, ptr %38, align 1, !tbaa !46
  %.not10 = icmp eq i8 %39, 0
  %40 = load ptr, ptr %7, align 8, !tbaa !9
  br i1 %.not10, label %43, label %41

41:                                               ; preds = %33
  %42 = tail call signext i8 @usearch_handlePreviousCanonical_77(ptr noundef %40, ptr noundef nonnull %2)
  br label %45

43:                                               ; preds = %33
  %44 = tail call signext i8 @usearch_handlePreviousExact_77(ptr noundef %40, ptr noundef nonnull %2)
  br label %45

45:                                               ; preds = %43, %41
  %46 = load i32, ptr %2, align 4, !tbaa !6
  %47 = icmp slt i32 %46, 1
  br i1 %47, label %48, label %52

48:                                               ; preds = %45
  %49 = load ptr, ptr %36, align 8, !tbaa !24
  br label %.sink.split

.sink.split:                                      ; preds = %26, %25, %48
  %.sink13 = phi ptr [ %49, %48 ], [ %.pre12, %25 ], [ %31, %26 ]
  %50 = getelementptr inbounds nuw i8, ptr %.sink13, i64 32
  %51 = load i32, ptr %50, align 8, !tbaa !38
  br label %52

52:                                               ; preds = %.sink.split, %3, %45
  %.0 = phi i32 [ -1, %45 ], [ -1, %3 ], [ %51, %.sink.split ]
  ret i32 %.0
}